target datalayout = "e-m:e-p270:32:32-p271:32:32-p272:64:64-i64:64-i128:128-f80:128-n8:16:32:64-S128"
target triple = "x86_64-pc-linux-gnu"

%struct._asn1_ctx_t = type { i32, i32, i8, ptr, ptr, ptr, ptr, ptr, %struct.anon, %struct.anon.2, %struct.anon.3, ptr }
%struct.anon = type { i32, i8, i8, i8, ptr, ptr, i32, i32, ptr, ptr, ptr, %union.anon }
%union.anon = type { %struct.anon.0 }
%struct.anon.0 = type { ptr }
%struct.anon.2 = type { ptr, ptr, ptr }
%struct.anon.3 = type { i32, i8, ptr, i32, i32, ptr, ptr, ptr, %union.anon.4 }
%union.anon.4 = type { %struct.anon.5 }
%struct.anon.5 = type { ptr }
%struct._packet_info = type { ptr, ptr, i32, i32, %struct.nstime_t, %struct.nstime_t, %struct.nstime_t, i32, ptr, ptr, ptr, ptr, %struct._address, %struct._address, %struct._address, %struct._address, %struct._address, %struct._address, i32, ptr, i32, %struct.anon.7, i32, i32, i32, i32, ptr, i32, ptr, ptr, i16, i16, i32, i32, i16, i32, i32, ptr, ptr, ptr, i8, i8, i16, i16, i16, i32, i16, i16, ptr, ptr, ptr, ptr, ptr, i32 }
%struct.nstime_t = type { i64, i32 }
%struct._address = type { i32, i32, ptr, ptr }
%struct.anon.7 = type { i8, [3 x i8] }
%struct._frame_data = type { i32, i32, i32, i32, i64, ptr, ptr, ptr, i16, i16, %struct.nstime_t, %struct.nstime_t, i32, i32, i8 }

@ett_spnego = internal global i32 0, align 4
@ett_spnego_NegotiationToken = internal global i32 0, align 4
@proto_spnego = internal global i32 0, align 4
@next_level_value = hidden global ptr null, align 8

; Function Attrs: nounwind uwtable
define internal i32 @dissect_spnego_NegotiationToken(i1 noundef zeroext %0, ptr noundef %1, i32 noundef %2, ptr noundef %3, ptr noundef %4, i32 noundef %5) #0 {
  %7 = alloca i8, align 1
  %8 = alloca ptr, align 8
  %9 = alloca i32, align 4
  %10 = alloca ptr, align 8
  %11 = alloca ptr, align 8
  %12 = alloca i32, align 4
  %13 = zext i1 %0 to i8
  store i8 %13, ptr %7, align 1
  store ptr %1, ptr %8, align 8
  store i32 %2, ptr %9, align 4
  store ptr %3, ptr %10, align 8
  store ptr %4, ptr %11, align 8
  store i32 %5, ptr %12, align 4
  %14 = load ptr, ptr %10, align 8
  %15 = load ptr, ptr %11, align 8
  %16 = load ptr, ptr %8, align 8
  %17 = load i32, ptr %9, align 4
  %18 = load i32, ptr %12, align 4
  %19 = load i32, ptr @ett_spnego_NegotiationToken, align 4
  %20 = call i32 @dissect_ber_choice(ptr noundef %14, ptr noundef %15, ptr noundef %16, i32 noundef %17, ptr noundef @NegotiationToken_choice, i32 noundef %18, i32 noundef %19, ptr noundef null)
  store i32 %20, ptr %9, align 4
  %21 = load i32, ptr %9, align 4
  ret i32 %21
}

; Function Attrs: nounwind uwtable
define internal i32 @dissect_spnego(ptr noundef %0, ptr noundef %1, ptr noundef %2, ptr noundef %3) #0 {
  %5 = alloca ptr, align 8
  %6 = alloca ptr, align 8
  %7 = alloca ptr, align 8
  %8 = alloca ptr, align 8
  %9 = alloca ptr, align 8
  %10 = alloca ptr, align 8
  %11 = alloca i32, align 4
  %12 = alloca ptr, align 8
  %13 = alloca %struct._asn1_ctx_t, align 8
  store ptr %0, ptr %5, align 8
  store ptr %1, ptr %6, align 8
  store ptr %2, ptr %7, align 8
  store ptr %3, ptr %8, align 8
  store i32 0, ptr %11, align 4
  %14 = load ptr, ptr %6, align 8
  call void @asn1_ctx_init(ptr noundef %13, i32 noundef 0, i1 noundef zeroext true, ptr noundef %14)
  %15 = call ptr @wmem_file_scope()
  %16 = load ptr, ptr %6, align 8
  %17 = load i32, ptr @proto_spnego, align 4
  %18 = call ptr @p_get_proto_data(ptr noundef %15, ptr noundef %16, i32 noundef %17, i32 noundef 0)
  store ptr %18, ptr @next_level_value, align 8
  %19 = load ptr, ptr @next_level_value, align 8
  %20 = icmp ne ptr %19, null
  br i1 %20, label %49, label %21

21:                                               ; preds = %4
  %22 = load ptr, ptr %6, align 8
  %23 = getelementptr inbounds %struct._packet_info, ptr %22, i32 0, i32 8
  %24 = load ptr, ptr %23, align 8
  %25 = getelementptr inbounds %struct._frame_data, ptr %24, i32 0, i32 9
  %26 = load i16, ptr %25, align 2
  %27 = lshr i16 %26, 3
  %28 = and i16 %27, 1
  %29 = zext i16 %28 to i32
  %30 = icmp ne i32 %29, 0
  br i1 %30, label %49, label %31

31:                                               ; preds = %21
  %32 = load ptr, ptr %6, align 8
  %33 = call ptr @find_conversation_pinfo(ptr noundef %32, i32 noundef 0)
  store ptr %33, ptr %12, align 8
  %34 = load ptr, ptr %12, align 8
  %35 = icmp ne ptr %34, null
  br i1 %35, label %36, label %48

36:                                               ; preds = %31
  %37 = load ptr, ptr %12, align 8
  %38 = load i32, ptr @proto_spnego, align 4
  %39 = call ptr @conversation_get_proto_data(ptr noundef %37, i32 noundef %38)
  store ptr %39, ptr @next_level_value, align 8
  %40 = load ptr, ptr @next_level_value, align 8
  %41 = icmp ne ptr %40, null
  br i1 %41, label %42, label %47

42:                                               ; preds = %36
  %43 = call ptr @wmem_file_scope()
  %44 = load ptr, ptr %6, align 8
  %45 = load i32, ptr @proto_spnego, align 4
  %46 = load ptr, ptr @next_level_value, align 8
  call void @p_add_proto_data(ptr noundef %43, ptr noundef %44, i32 noundef %45, i32 noundef 0, ptr noundef %46)
  br label %47

47:                                               ; preds = %42, %36
  br label %48

48:                                               ; preds = %47, %31
  br label %49

49:                                               ; preds = %48, %21, %4
  %50 = load ptr, ptr %7, align 8
  %51 = load i32, ptr @proto_spnego, align 4
  %52 = load ptr, ptr %5, align 8
  %53 = load i32, ptr %11, align 4
  %54 = call ptr @proto_tree_add_item(ptr noundef %50, i32 noundef %51, ptr noundef %52, i32 noundef %53, i32 noundef -1, i32 noundef 0)
  store ptr %54, ptr %9, align 8
  %55 = load ptr, ptr %9, align 8
  %56 = load i32, ptr @ett_spnego, align 4
  %57 = call ptr @proto_item_add_subtree(ptr noundef %55, i32 noundef %56)
  store ptr %57, ptr %10, align 8
  %58 = load ptr, ptr %5, align 8
  %59 = load i32, ptr %11, align 4
  %60 = load ptr, ptr %10, align 8
  %61 = call i32 @dissect_spnego_NegotiationToken(i1 noundef zeroext false, ptr noundef %58, i32 noundef %59, ptr noundef %13, ptr noundef %60, i32 noundef -1)
  %62 = load ptr, ptr %5, align 8
  %63 = call i32 @tvb_captured_length(ptr noundef %62)
  ret i32 %63
}