; Function Attrs: nounwind uwtable
define internal i32 @dissect_spnego(ptr noundef %0, ptr noundef %1, ptr noundef %2, ptr readnone captures(none) %3) #0 {
  %5 = alloca %struct._asn1_ctx_t, align 8
  call void @asn1_ctx_init(ptr noundef nonnull %5, i32 noundef 0, i1 noundef zeroext true, ptr noundef %1) #6
  %6 = call ptr @wmem_file_scope() #6
  %7 = load i32, ptr @proto_spnego, align 4
  %8 = call ptr @p_get_proto_data(ptr noundef %6, ptr noundef %1, i32 noundef %7, i32 noundef 0) #6
  store ptr %8, ptr @next_level_value, align 8
  %.not = icmp eq ptr %8, null
  br i1 %.not, label %9, label %24

9:                                                ; preds = %4
  %10 = getelementptr inbounds nuw i8, ptr %1, i64 80
  %11 = load ptr, ptr %10, align 8
  %12 = getelementptr inbounds nuw i8, ptr %11, i64 50
  %13 = load i16, ptr %12, align 2
  %14 = and i16 %13, 8
  %.not14 = icmp eq i16 %14, 0
  br i1 %.not14, label %15, label %24

15:                                               ; preds = %9
  %16 = call ptr @find_conversation_pinfo(ptr noundef nonnull %1, i32 noundef 0) #6
  %.not15 = icmp eq ptr %16, null
  br i1 %.not15, label %24, label %17

17:                                               ; preds = %15
  %18 = load i32, ptr @proto_spnego, align 4
  %19 = call ptr @conversation_get_proto_data(ptr noundef nonnull %16, i32 noundef %18) #6
  store ptr %19, ptr @next_level_value, align 8
  %.not16 = icmp eq ptr %19, null
  br i1 %.not16, label %24, label %20

20:                                               ; preds = %17
  %21 = call ptr @wmem_file_scope() #6
  %22 = load i32, ptr @proto_spnego, align 4
  %23 = load ptr, ptr @next_level_value, align 8
  call void @p_add_proto_data(ptr noundef %21, ptr noundef nonnull %1, i32 noundef %22, i32 noundef 0, ptr noundef %23) #6
  br label %24

24:                                               ; preds = %15, %20, %17, %9, %4
  %25 = load i32, ptr @proto_spnego, align 4
  %26 = call ptr @proto_tree_add_item(ptr noundef %2, i32 noundef %25, ptr noundef %0, i32 noundef 0, i32 noundef -1, i32 noundef 0) #6
  %27 = load i32, ptr @ett_spnego, align 4
  %28 = call ptr @proto_item_add_subtree(ptr noundef %26, i32 noundef %27) #6
  %29 = load i32, ptr @ett_spnego_NegotiationToken, align 4
  %30 = call i32 @dissect_ber_choice(ptr noundef nonnull %5, ptr noundef %28, ptr noundef %0, i32 noundef 0, ptr noundef nonnull @NegotiationToken_choice, i32 noundef -1, i32 noundef %29, ptr noundef null) #6
  %31 = call i32 @tvb_captured_length(ptr noundef %0) #6
  ret i32 %31
}